; Function Attrs: mustprogress uwtable
define dso_local void @_ZNK19cmUVReadOnlyProcess13UVPipeErrDataE7cmRangeIPKcE(ptr nocapture noundef nonnull readonly align 8 dereferenceable(488) %0, ptr %1, ptr %2) local_unnamed_addr #0 align 2 {
  %4 = getelementptr inbounds i8, ptr %0, i64 64
  %5 = load i8, ptr %4, align 8
  %6 = and i8 %5, 1
  %.not = icmp eq i8 %6, 0
  %7 = getelementptr inbounds i8, ptr %0, i64 56
  %8 = load ptr, ptr %7, align 8
  %.v = select i1 %.not, i64 48, i64 16
  %9 = getelementptr inbounds i8, ptr %8, i64 %.v
  %10 = tail call ptr @_ZNSt7__cxx1112basic_stringIcSt11char_traitsIcESaIcEE3endEv(ptr noundef nonnull align 8 dereferenceable(32) %9) #20
  %11 = tail call ptr @_ZNSt7__cxx1112basic_stringIcSt11char_traitsIcESaIcEE3endEv(ptr noundef nonnull align 8 dereferenceable(32) %9) #20
  %12 = tail call noundef nonnull align 8 dereferenceable(32) ptr @_ZNSt7__cxx1112basic_stringIcSt11char_traitsIcESaIcEE7replaceEN9__gnu_cxx17__normal_iteratorIPKcS4_EES9_S8_S8_(ptr noundef nonnull align 8 dereferenceable(32) %9, ptr %10, ptr %11, ptr noundef %1, ptr noundef %2)
  ret void
}